target datalayout = "e-m:e-p270:32:32-p271:32:32-p272:64:64-i64:64-i128:128-f80:128-n8:16:32:64-S128"
target triple = "x86_64-pc-linux-gnu"

%struct.evp_method_data_st = type { ptr, i32, i32, ptr, ptr, ptr, i8, ptr, ptr, ptr }

; Function Attrs: nounwind uwtable
define internal ptr @get_evp_method_store(ptr noundef %0) #0 {
  %2 = alloca ptr, align 8
  store ptr %0, ptr %2, align 8, !tbaa !3
  %3 = load ptr, ptr %2, align 8, !tbaa !3
  %4 = call ptr @ossl_lib_ctx_get_data(ptr noundef %3, i32 noundef 0)
  ret ptr %4
}

; Function Attrs: nounwind uwtable
define internal i32 @evp_method_id(i32 noundef %0, i32 noundef %1) #0 {
  %3 = alloca i32, align 4
  %4 = alloca i32, align 4
  %5 = alloca i32, align 4
  store i32 %0, ptr %4, align 4, !tbaa !8
  store i32 %1, ptr %5, align 4, !tbaa !8
  %6 = load i32, ptr %4, align 4, !tbaa !8
  %7 = icmp sgt i32 %6, 0
  br i1 %7, label %8, label %11

8:                                                ; preds = %2
  %9 = load i32, ptr %4, align 4, !tbaa !8
  %10 = icmp sle i32 %9, 8388607
  br label %11

11:                                               ; preds = %8, %2
  %12 = phi i1 [ false, %2 ], [ %10, %8 ]
  %13 = zext i1 %12 to i32
  %14 = icmp ne i32 %13, 0
  %15 = xor i1 %14, true
  %16 = xor i1 %15, true
  %17 = zext i1 %16 to i32
  %18 = sext i32 %17 to i64
  %19 = call i64 @llvm.expect.i64(i64 %18, i64 1)
  %20 = icmp ne i64 %19, 0
  br i1 %20, label %21, label %37

21:                                               ; preds = %11
  %22 = load i32, ptr %5, align 4, !tbaa !8
  %23 = icmp ugt i32 %22, 0
  br i1 %23, label %24, label %27

24:                                               ; preds = %21
  %25 = load i32, ptr %5, align 4, !tbaa !8
  %26 = icmp ule i32 %25, 255
  br label %27

27:                                               ; preds = %24, %21
  %28 = phi i1 [ false, %21 ], [ %26, %24 ]
  %29 = zext i1 %28 to i32
  %30 = icmp ne i32 %29, 0
  %31 = xor i1 %30, true
  %32 = xor i1 %31, true
  %33 = zext i1 %32 to i32
  %34 = sext i32 %33 to i64
  %35 = call i64 @llvm.expect.i64(i64 %34, i64 1)
  %36 = icmp ne i64 %35, 0
  br i1 %36, label %38, label %37

37:                                               ; preds = %27, %11
  store i32 0, ptr %3, align 4
  br label %45

38:                                               ; preds = %27
  %39 = load i32, ptr %4, align 4, !tbaa !8
  %40 = shl i32 %39, 8
  %41 = and i32 %40, 2147483392
  %42 = load i32, ptr %5, align 4, !tbaa !8
  %43 = and i32 %42, 255
  %44 = or i32 %41, %43
  store i32 %44, ptr %3, align 4
  br label %45

45:                                               ; preds = %38, %37
  %46 = load i32, ptr %3, align 4
  ret i32 %46
}

; Function Attrs: nounwind uwtable
define internal i32 @put_evp_method_in_store(ptr noundef %0, ptr noundef %1, ptr noundef %2, ptr noundef %3, ptr noundef %4, ptr noundef %5) #0 {
  %7 = alloca i32, align 4
  %8 = alloca ptr, align 8
  %9 = alloca ptr, align 8
  %10 = alloca ptr, align 8
  %11 = alloca ptr, align 8
  %12 = alloca ptr, align 8
  %13 = alloca ptr, align 8
  %14 = alloca ptr, align 8
  %15 = alloca ptr, align 8
  %16 = alloca i32, align 4
  %17 = alloca i32, align 4
  %18 = alloca i64, align 8
  %19 = alloca ptr, align 8
  %20 = alloca i32, align 4
  store ptr %0, ptr %8, align 8, !tbaa !12
  store ptr %1, ptr %9, align 8, !tbaa !12
  store ptr %2, ptr %10, align 8, !tbaa !19
  store ptr %3, ptr %11, align 8, !tbaa !10
  store ptr %4, ptr %12, align 8, !tbaa !10
  store ptr %5, ptr %13, align 8, !tbaa !12
  call void @llvm.lifetime.start.p0(i64 8, ptr %14) #6
  %21 = load ptr, ptr %13, align 8, !tbaa !12
  store ptr %21, ptr %14, align 8, !tbaa !17
  call void @llvm.lifetime.start.p0(i64 8, ptr %15) #6
  call void @llvm.lifetime.start.p0(i64 4, ptr %16) #6
  call void @llvm.lifetime.start.p0(i64 4, ptr %17) #6
  call void @llvm.lifetime.start.p0(i64 8, ptr %18) #6
  store i64 0, ptr %18, align 8, !tbaa !35
  %22 = load ptr, ptr %11, align 8, !tbaa !10
  %23 = icmp ne ptr %22, null
  br i1 %23, label %24, label %40

24:                                               ; preds = %6
  call void @llvm.lifetime.start.p0(i64 8, ptr %19) #6
  %25 = load ptr, ptr %11, align 8, !tbaa !10
  %26 = call ptr @strchr(ptr noundef %25, i32 noundef 58) #7
  store ptr %26, ptr %19, align 8, !tbaa !10
  %27 = load ptr, ptr %19, align 8, !tbaa !10
  %28 = icmp eq ptr %27, null
  br i1 %28, label %29, label %32

29:                                               ; preds = %24
  %30 = load ptr, ptr %11, align 8, !tbaa !10
  %31 = call i64 @strlen(ptr noundef %30) #7
  br label %38

32:                                               ; preds = %24
  %33 = load ptr, ptr %19, align 8, !tbaa !10
  %34 = load ptr, ptr %11, align 8, !tbaa !10
  %35 = ptrtoint ptr %33 to i64
  %36 = ptrtoint ptr %34 to i64
  %37 = sub i64 %35, %36
  br label %38

38:                                               ; preds = %32, %29
  %39 = phi i64 [ %31, %29 ], [ %37, %32 ]
  store i64 %39, ptr %18, align 8, !tbaa !35
  call void @llvm.lifetime.end.p0(i64 8, ptr %19) #6
  br label %40

40:                                               ; preds = %38, %6
  %41 = load ptr, ptr %14, align 8, !tbaa !17
  %42 = getelementptr inbounds nuw %struct.evp_method_data_st, ptr %41, i32 0, i32 0
  %43 = load ptr, ptr %42, align 8, !tbaa !13
  %44 = call ptr @ossl_namemap_stored(ptr noundef %43)
  store ptr %44, ptr %15, align 8, !tbaa !22
  %45 = icmp eq ptr %44, null
  br i1 %45, label %59, label %46

46:                                               ; preds = %40
  %47 = load ptr, ptr %15, align 8, !tbaa !22
  %48 = load ptr, ptr %11, align 8, !tbaa !10
  %49 = load i64, ptr %18, align 8, !tbaa !35
  %50 = call i32 @ossl_namemap_name2num_n(ptr noundef %47, ptr noundef %48, i64 noundef %49)
  store i32 %50, ptr %16, align 4, !tbaa !8
  %51 = icmp eq i32 %50, 0
  br i1 %51, label %59, label %52

52:                                               ; preds = %46
  %53 = load i32, ptr %16, align 4, !tbaa !8
  %54 = load ptr, ptr %14, align 8, !tbaa !17
  %55 = getelementptr inbounds nuw %struct.evp_method_data_st, ptr %54, i32 0, i32 1
  %56 = load i32, ptr %55, align 8, !tbaa !24
  %57 = call i32 @evp_method_id(i32 noundef %53, i32 noundef %56)
  store i32 %57, ptr %17, align 4, !tbaa !8
  %58 = icmp eq i32 %57, 0
  br i1 %58, label %59, label %60

59:                                               ; preds = %52, %46, %40
  store i32 0, ptr %7, align 4
  store i32 1, ptr %20, align 4
  br label %83

60:                                               ; preds = %52
  %61 = load ptr, ptr %8, align 8, !tbaa !12
  %62 = icmp eq ptr %61, null
  br i1 %62, label %63, label %70

63:                                               ; preds = %60
  %64 = load ptr, ptr %14, align 8, !tbaa !17
  %65 = getelementptr inbounds nuw %struct.evp_method_data_st, ptr %64, i32 0, i32 0
  %66 = load ptr, ptr %65, align 8, !tbaa !13
  %67 = call ptr @get_evp_method_store(ptr noundef %66)
  store ptr %67, ptr %8, align 8, !tbaa !12
  %68 = icmp eq ptr %67, null
  br i1 %68, label %69, label %70

69:                                               ; preds = %63
  store i32 0, ptr %7, align 4
  store i32 1, ptr %20, align 4
  br label %83

70:                                               ; preds = %63, %60
  %71 = load ptr, ptr %8, align 8, !tbaa !12
  %72 = load ptr, ptr %10, align 8, !tbaa !19
  %73 = load i32, ptr %17, align 4, !tbaa !8
  %74 = load ptr, ptr %12, align 8, !tbaa !10
  %75 = load ptr, ptr %9, align 8, !tbaa !12
  %76 = load ptr, ptr %14, align 8, !tbaa !17
  %77 = getelementptr inbounds nuw %struct.evp_method_data_st, ptr %76, i32 0, i32 8
  %78 = load ptr, ptr %77, align 8, !tbaa !29
  %79 = load ptr, ptr %14, align 8, !tbaa !17
  %80 = getelementptr inbounds nuw %struct.evp_method_data_st, ptr %79, i32 0, i32 9
  %81 = load ptr, ptr %80, align 8, !tbaa !30
  %82 = call i32 @ossl_method_store_add(ptr noundef %71, ptr noundef %72, i32 noundef %73, ptr noundef %74, ptr noundef %75, ptr noundef %78, ptr noundef %81)
  store i32 %82, ptr %7, align 4
  store i32 1, ptr %20, align 4
  br label %83

83:                                               ; preds = %70, %69, %59
  call void @llvm.lifetime.end.p0(i64 8, ptr %18) #6
  call void @llvm.lifetime.end.p0(i64 4, ptr %17) #6
  call void @llvm.lifetime.end.p0(i64 4, ptr %16) #6
  call void @llvm.lifetime.end.p0(i64 8, ptr %15) #6
  call void @llvm.lifetime.end.p0(i64 8, ptr %14) #6
  %84 = load i32, ptr %7, align 4
  ret i32 %84
}