; Function Attrs: nounwind uwtable
define internal i32 @put_evp_method_in_store(ptr noundef %0, ptr noundef %1, ptr noundef %2, ptr noundef %3, ptr noundef %4, ptr noundef readonly captures(none) %5) #0 {
  %.not = icmp eq ptr %3, null
  br i1 %.not, label %16, label %7

7:                                                ; preds = %6
  %8 = tail call ptr @strchr(ptr noundef nonnull dereferenceable(1) %3, i32 noundef 58) #6
  %9 = icmp eq ptr %8, null
  br i1 %9, label %10, label %12

10:                                               ; preds = %7
  %11 = tail call i64 @strlen(ptr noundef nonnull dereferenceable(1) %3) #6
  br label %16

12:                                               ; preds = %7
  %13 = ptrtoint ptr %8 to i64
  %14 = ptrtoint ptr %3 to i64
  %15 = sub i64 %13, %14
  br label %16

16:                                               ; preds = %10, %12, %6
  %.022 = phi i64 [ 0, %6 ], [ %11, %10 ], [ %15, %12 ]
  %17 = load ptr, ptr %5, align 8, !tbaa !3
  %18 = tail call ptr @ossl_namemap_stored(ptr noundef %17) #5
  %19 = icmp eq ptr %18, null
  br i1 %19, label %43, label %20

20:                                               ; preds = %16
  %21 = tail call i32 @ossl_namemap_name2num_n(ptr noundef nonnull %18, ptr noundef %3, i64 noundef %.022) #5
  %22 = icmp eq i32 %21, 0
  br i1 %22, label %43, label %23

23:                                               ; preds = %20
  %24 = getelementptr inbounds nuw i8, ptr %5, i64 8
  %25 = load i32, ptr %24, align 8, !tbaa !17
  %26 = icmp ugt i32 %21, 8388607
  %27 = add i32 %25, -256
  %28 = icmp ult i32 %27, -255
  %or.cond.i.not = or i1 %26, %28
  %29 = shl nuw nsw i32 %21, 8
  %30 = add nuw nsw i32 %25, %29
  br i1 %or.cond.i.not, label %43, label %31

31:                                               ; preds = %23
  %32 = icmp eq ptr %0, null
  br i1 %32, label %33, label %37

33:                                               ; preds = %31
  %34 = load ptr, ptr %5, align 8, !tbaa !3
  %35 = tail call ptr @ossl_lib_ctx_get_data(ptr noundef %34, i32 noundef 0) #5
  %36 = icmp eq ptr %35, null
  br i1 %36, label %43, label %37

37:                                               ; preds = %33, %31
  %.023 = phi ptr [ %35, %33 ], [ %0, %31 ]
  %38 = getelementptr inbounds nuw i8, ptr %5, i64 56
  %39 = load ptr, ptr %38, align 8, !tbaa !22
  %40 = getelementptr inbounds nuw i8, ptr %5, i64 64
  %41 = load ptr, ptr %40, align 8, !tbaa !23
  %42 = tail call i32 @ossl_method_store_add(ptr noundef nonnull %.023, ptr noundef %2, i32 noundef %30, ptr noundef %4, ptr noundef %1, ptr noundef %39, ptr noundef %41) #5
  br label %43

43:                                               ; preds = %33, %16, %20, %23, %37
  %.0 = phi i32 [ %42, %37 ], [ 0, %23 ], [ 0, %20 ], [ 0, %16 ], [ 0, %33 ]
  ret i32 %.0
}